target datalayout = "e-m:e-p270:32:32-p271:32:32-p272:64:64-i64:64-i128:128-f80:128-n8:16:32:64-S128"
target triple = "x86_64-pc-linux-gnu"

; Function Attrs: nounwind uwtable
define i64 @_CONF_get_number(ptr noundef %0, ptr noundef %1, ptr noundef %2) #0 {
  %4 = alloca ptr, align 8
  %5 = alloca ptr, align 8
  %6 = alloca ptr, align 8
  %7 = alloca i32, align 4
  %8 = alloca i64, align 8
  store ptr %0, ptr %4, align 8, !tbaa !3
  store ptr %1, ptr %5, align 8, !tbaa !19
  store ptr %2, ptr %6, align 8, !tbaa !19
  call void @llvm.lifetime.start.p0(i64 4, ptr %7) #8
  call void @llvm.lifetime.start.p0(i64 8, ptr %8) #8
  store i64 0, ptr %8, align 8, !tbaa !29
  %9 = call i32 @ERR_set_mark()
  %10 = load ptr, ptr %4, align 8, !tbaa !3
  %11 = load ptr, ptr %5, align 8, !tbaa !19
  %12 = load ptr, ptr %6, align 8, !tbaa !19
  %13 = call i32 @NCONF_get_number_e(ptr noundef %10, ptr noundef %11, ptr noundef %12, ptr noundef %8)
  store i32 %13, ptr %7, align 4, !tbaa !24
  %14 = call i32 @ERR_pop_to_mark()
  %15 = load i32, ptr %7, align 4, !tbaa !24
  %16 = icmp eq i32 %15, 0
  br i1 %16, label %17, label %18

17:                                               ; preds = %3
  br label %20

18:                                               ; preds = %3
  %19 = load i64, ptr %8, align 8, !tbaa !29
  br label %20

20:                                               ; preds = %18, %17
  %21 = phi i64 [ 0, %17 ], [ %19, %18 ]
  call void @llvm.lifetime.end.p0(i64 8, ptr %8) #8
  call void @llvm.lifetime.end.p0(i64 4, ptr %7) #8
  ret i64 %21
}