; Function Attrs: nounwind uwtable
define i64 @_CONF_get_number(ptr noundef %0, ptr noundef %1, ptr noundef %2) local_unnamed_addr #0 {
  %4 = alloca i64, align 8
  call void @llvm.lifetime.start.p0(i64 8, ptr nonnull %4) #15
  store i64 0, ptr %4, align 8, !tbaa !18
  %5 = tail call i32 @ERR_set_mark() #15
  %6 = call i32 @NCONF_get_number_e(ptr noundef %0, ptr noundef %1, ptr noundef %2, ptr noundef nonnull %4)
  %7 = call i32 @ERR_pop_to_mark() #15
  %8 = icmp eq i32 %6, 0
  %9 = load i64, ptr %4, align 8
  %10 = select i1 %8, i64 0, i64 %9
  call void @llvm.lifetime.end.p0(i64 8, ptr nonnull %4) #15
  ret i64 %10
}